target datalayout = "e-m:e-p270:32:32-p271:32:32-p272:64:64-i64:64-i128:128-f80:128-n8:16:32:64-S128"
target triple = "x86_64-pc-linux-gnu"

%struct.H5P_libclass_t = type { ptr, i32, ptr, ptr, ptr, ptr, ptr, ptr, ptr, ptr, ptr, ptr, ptr }
%struct.H5VL_loc_params_t = type { i32, i32, %union.anon.0 }
%union.anon.0 = type { %struct.H5VL_loc_by_idx }
%struct.H5VL_loc_by_idx = type { ptr, i32, i32, i64, i64 }

@.str = private unnamed_addr constant [97 x i8] c"generated/home/dtcxzyw/WorkSpace/Projects/compilers/llvm-opt-benchmark/bench/hdf5/hdf5/src/H5A.c\00", align 1
@H5E_CANTSET_g = external global i64, align 8
@H5E_ATTR_g = external global i64, align 8
@H5E_CANTCREATE_g = external global i64, align 8
@H5E_ARGS_g = external global i64, align 8
@H5E_BADTYPE_g = external global i64, align 8
@H5E_BADVALUE_g = external global i64, align 8
@.str.43 = private unnamed_addr constant [39 x i8] c"location is not valid for an attribute\00", align 1
@__func__.H5A__create_api_common = private unnamed_addr constant [23 x i8] c"H5A__create_api_common\00", align 1
@.str.86 = private unnamed_addr constant [35 x i8] c"attr_name parameter cannot be NULL\00", align 1
@.str.87 = private unnamed_addr constant [46 x i8] c"attr_name parameter cannot be an empty string\00", align 1
@H5P_CLS_AACC = external constant [1 x %struct.H5P_libclass_t], align 16
@.str.88 = private unnamed_addr constant [34 x i8] c"can't set object access arguments\00", align 1
@H5P_LST_ATTRIBUTE_CREATE_ID_g = external global i64, align 8
@.str.89 = private unnamed_addr constant [27 x i8] c"unable to create attribute\00", align 1

; Function Attrs: nounwind uwtable
define internal i64 @H5A__create_api_common(i64 noundef %0, ptr noundef %1, i64 noundef %2, i64 noundef %3, i64 noundef %4, i64 noundef %5, ptr noundef %6, ptr noundef %7) #0 {
  %9 = alloca i64, align 8
  %10 = alloca ptr, align 8
  %11 = alloca i64, align 8
  %12 = alloca i64, align 8
  %13 = alloca i64, align 8
  %14 = alloca i64, align 8
  %15 = alloca ptr, align 8
  %16 = alloca ptr, align 8
  %17 = alloca ptr, align 8
  %18 = alloca ptr, align 8
  %19 = alloca %struct.H5VL_loc_params_t, align 8
  %20 = alloca i64, align 8
  %21 = alloca i8, align 1
  store i64 %0, ptr %9, align 8
  store ptr %1, ptr %10, align 8
  store i64 %2, ptr %11, align 8
  store i64 %3, ptr %12, align 8
  store i64 %4, ptr %13, align 8
  store i64 %5, ptr %14, align 8
  store ptr %6, ptr %15, align 8
  store ptr %7, ptr %16, align 8
  store ptr null, ptr %17, align 8
  %22 = load ptr, ptr %16, align 8
  %23 = icmp ne ptr %22, null
  br i1 %23, label %24, label %26

24:                                               ; preds = %8
  %25 = load ptr, ptr %16, align 8
  br label %27

26:                                               ; preds = %8
  br label %27

27:                                               ; preds = %26, %24
  %28 = phi ptr [ %25, %24 ], [ %17, %26 ]
  store ptr %28, ptr %18, align 8
  store i64 -1, ptr %20, align 8
  store i8 0, ptr %21, align 1
  %29 = load i64, ptr %9, align 8
  %30 = call i32 @H5I_get_type(i64 noundef %29)
  %31 = icmp eq i32 7, %30
  br i1 %31, label %32, label %47

32:                                               ; preds = %27
  br label %33

33:                                               ; preds = %32
  br label %34

34:                                               ; preds = %33
  br label %35

35:                                               ; preds = %34
  %36 = load i64, ptr @H5E_ARGS_g, align 8
  %37 = load i64, ptr @H5E_BADTYPE_g, align 8
  %38 = call i32 (ptr, ptr, i32, i64, i64, ptr, ...) @H5E_printf_stack(ptr noundef @.str, ptr noundef @__func__.H5A__create_api_common, i32 noundef 164, i64 noundef %36, i64 noundef %37, ptr noundef @.str.43)
  br label %39

39:                                               ; preds = %35
  store i8 1, ptr %21, align 1
  %40 = load i8, ptr %21, align 1
  %41 = trunc i8 %40 to i1
  %42 = zext i1 %41 to i8
  store i8 %42, ptr %21, align 1
  br label %43

43:                                               ; preds = %39
  br label %44

44:                                               ; preds = %43
  store i64 -1, ptr %20, align 8
  br label %136

45:                                               ; No predecessors!
  br label %46

46:                                               ; preds = %45
  br label %47

47:                                               ; preds = %46, %27
  %48 = load ptr, ptr %10, align 8
  %49 = icmp ne ptr %48, null
  br i1 %49, label %65, label %50

50:                                               ; preds = %47
  br label %51

51:                                               ; preds = %50
  br label %52

52:                                               ; preds = %51
  br label %53

53:                                               ; preds = %52
  %54 = load i64, ptr @H5E_ARGS_g, align 8
  %55 = load i64, ptr @H5E_BADVALUE_g, align 8
  %56 = call i32 (ptr, ptr, i32, i64, i64, ptr, ...) @H5E_printf_stack(ptr noundef @.str, ptr noundef @__func__.H5A__create_api_common, i32 noundef 166, i64 noundef %54, i64 noundef %55, ptr noundef @.str.86)
  br label %57

57:                                               ; preds = %53
  store i8 1, ptr %21, align 1
  %58 = load i8, ptr %21, align 1
  %59 = trunc i8 %58 to i1
  %60 = zext i1 %59 to i8
  store i8 %60, ptr %21, align 1
  br label %61

61:                                               ; preds = %57
  br label %62

62:                                               ; preds = %61
  store i64 -1, ptr %20, align 8
  br label %136

63:                                               ; No predecessors!
  br label %64

64:                                               ; preds = %63
  br label %65

65:                                               ; preds = %64, %47
  %66 = load ptr, ptr %10, align 8
  %67 = load i8, ptr %66, align 1
  %68 = icmp ne i8 %67, 0
  br i1 %68, label %84, label %69

69:                                               ; preds = %65
  br label %70

70:                                               ; preds = %69
  br label %71

71:                                               ; preds = %70
  br label %72

72:                                               ; preds = %71
  %73 = load i64, ptr @H5E_ARGS_g, align 8
  %74 = load i64, ptr @H5E_BADVALUE_g, align 8
  %75 = call i32 (ptr, ptr, i32, i64, i64, ptr, ...) @H5E_printf_stack(ptr noundef @.str, ptr noundef @__func__.H5A__create_api_common, i32 noundef 168, i64 noundef %73, i64 noundef %74, ptr noundef @.str.87)
  br label %76

76:                                               ; preds = %72
  store i8 1, ptr %21, align 1
  %77 = load i8, ptr %21, align 1
  %78 = trunc i8 %77 to i1
  %79 = zext i1 %78 to i8
  store i8 %79, ptr %21, align 1
  br label %80

80:                                               ; preds = %76
  br label %81

81:                                               ; preds = %80
  store i64 -1, ptr %20, align 8
  br label %136

82:                                               ; No predecessors!
  br label %83

83:                                               ; preds = %82
  br label %84

84:                                               ; preds = %83, %65
  %85 = load i64, ptr %9, align 8
  %86 = load ptr, ptr %18, align 8
  %87 = call i32 @H5VL_setup_acc_args(i64 noundef %85, ptr noundef @H5P_CLS_AACC, i1 noundef zeroext true, ptr noundef %14, ptr noundef %86, ptr noundef %19)
  %88 = icmp slt i32 %87, 0
  br i1 %88, label %89, label %104

89:                                               ; preds = %84
  br label %90

90:                                               ; preds = %89
  br label %91

91:                                               ; preds = %90
  br label %92

92:                                               ; preds = %91
  %93 = load i64, ptr @H5E_ATTR_g, align 8
  %94 = load i64, ptr @H5E_CANTSET_g, align 8
  %95 = call i32 (ptr, ptr, i32, i64, i64, ptr, ...) @H5E_printf_stack(ptr noundef @.str, ptr noundef @__func__.H5A__create_api_common, i32 noundef 172, i64 noundef %93, i64 noundef %94, ptr noundef @.str.88)
  br label %96

96:                                               ; preds = %92
  store i8 1, ptr %21, align 1
  %97 = load i8, ptr %21, align 1
  %98 = trunc i8 %97 to i1
  %99 = zext i1 %98 to i8
  store i8 %99, ptr %21, align 1
  br label %100

100:                                              ; preds = %96
  br label %101

101:                                              ; preds = %100
  store i64 -1, ptr %20, align 8
  br label %136

102:                                              ; No predecessors!
  br label %103

103:                                              ; preds = %102
  br label %104

104:                                              ; preds = %103, %84
  %105 = load i64, ptr %13, align 8
  %106 = icmp eq i64 0, %105
  br i1 %106, label %107, label %109

107:                                              ; preds = %104
  %108 = load i64, ptr @H5P_LST_ATTRIBUTE_CREATE_ID_g, align 8
  store i64 %108, ptr %13, align 8
  br label %109

109:                                              ; preds = %107, %104
  %110 = load ptr, ptr %18, align 8
  %111 = load ptr, ptr %110, align 8
  %112 = load ptr, ptr %10, align 8
  %113 = load i64, ptr %11, align 8
  %114 = load i64, ptr %12, align 8
  %115 = load i64, ptr %13, align 8
  %116 = load i64, ptr %14, align 8
  %117 = load ptr, ptr %15, align 8
  %118 = call i64 @H5A__create_common(ptr noundef %111, ptr noundef %19, ptr noundef %112, i64 noundef %113, i64 noundef %114, i64 noundef %115, i64 noundef %116, ptr noundef %117)
  store i64 %118, ptr %20, align 8
  %119 = icmp slt i64 %118, 0
  br i1 %119, label %120, label %135

120:                                              ; preds = %109
  br label %121

121:                                              ; preds = %120
  br label %122

122:                                              ; preds = %121
  br label %123

123:                                              ; preds = %122
  %124 = load i64, ptr @H5E_ATTR_g, align 8
  %125 = load i64, ptr @H5E_CANTCREATE_g, align 8
  %126 = call i32 (ptr, ptr, i32, i64, i64, ptr, ...) @H5E_printf_stack(ptr noundef @.str, ptr noundef @__func__.H5A__create_api_common, i32 noundef 181, i64 noundef %124, i64 noundef %125, ptr noundef @.str.89)
  br label %127

127:                                              ; preds = %123
  store i8 1, ptr %21, align 1
  %128 = load i8, ptr %21, align 1
  %129 = trunc i8 %128 to i1
  %130 = zext i1 %129 to i8
  store i8 %130, ptr %21, align 1
  br label %131

131:                                              ; preds = %127
  br label %132

132:                                              ; preds = %131
  store i64 -1, ptr %20, align 8
  br label %136

133:                                              ; No predecessors!
  br label %134

134:                                              ; preds = %133
  br label %135

135:                                              ; preds = %134, %109
  br label %136

136:                                              ; preds = %135, %132, %101, %81, %62, %44
  %137 = load i64, ptr %20, align 8
  ret i64 %137
}