; Function Attrs: nounwind uwtable
define internal fastcc range(i64 -1, -9223372036854775808) i64 @H5A__create_api_common(i64 noundef %0, ptr noundef %1, i64 noundef %2, i64 noundef %3, i64 noundef %4, i64 noundef %5, ptr noundef %6, ptr noundef %7) unnamed_addr #0 {
  %9 = alloca i64, align 8
  %10 = alloca ptr, align 8
  %11 = alloca %struct.H5VL_loc_params_t, align 8
  store i64 %5, ptr %9, align 8
  store ptr null, ptr %10, align 8
  %.not = icmp eq ptr %7, null
  %12 = select i1 %.not, ptr %10, ptr %7
  %13 = tail call i32 @H5I_get_type(i64 noundef %0) #4
  %14 = icmp eq i32 %13, 7
  br i1 %14, label %15, label %19

15:                                               ; preds = %8
  %16 = load i64, ptr @H5E_ARGS_g, align 8
  %17 = load i64, ptr @H5E_BADTYPE_g, align 8
  %18 = tail call i32 (ptr, ptr, i32, i64, i64, ptr, ...) @H5E_printf_stack(ptr noundef nonnull @.str, ptr noundef nonnull @__func__.H5A__create_api_common, i32 noundef 164, i64 noundef %16, i64 noundef %17, ptr noundef nonnull @.str.43) #4
  br label %48

19:                                               ; preds = %8
  %.not23 = icmp eq ptr %1, null
  br i1 %.not23, label %20, label %24

20:                                               ; preds = %19
  %21 = load i64, ptr @H5E_ARGS_g, align 8
  %22 = load i64, ptr @H5E_BADVALUE_g, align 8
  %23 = tail call i32 (ptr, ptr, i32, i64, i64, ptr, ...) @H5E_printf_stack(ptr noundef nonnull @.str, ptr noundef nonnull @__func__.H5A__create_api_common, i32 noundef 166, i64 noundef %21, i64 noundef %22, ptr noundef nonnull @.str.86) #4
  br label %48

24:                                               ; preds = %19
  %25 = load i8, ptr %1, align 1
  %.not24 = icmp eq i8 %25, 0
  br i1 %.not24, label %26, label %30

26:                                               ; preds = %24
  %27 = load i64, ptr @H5E_ARGS_g, align 8
  %28 = load i64, ptr @H5E_BADVALUE_g, align 8
  %29 = tail call i32 (ptr, ptr, i32, i64, i64, ptr, ...) @H5E_printf_stack(ptr noundef nonnull @.str, ptr noundef nonnull @__func__.H5A__create_api_common, i32 noundef 168, i64 noundef %27, i64 noundef %28, ptr noundef nonnull @.str.87) #4
  br label %48

30:                                               ; preds = %24
  %31 = call i32 @H5VL_setup_acc_args(i64 noundef %0, ptr noundef nonnull @H5P_CLS_AACC, i1 noundef zeroext true, ptr noundef nonnull %9, ptr noundef nonnull %12, ptr noundef nonnull %11) #4
  %32 = icmp slt i32 %31, 0
  br i1 %32, label %33, label %37

33:                                               ; preds = %30
  %34 = load i64, ptr @H5E_ATTR_g, align 8
  %35 = load i64, ptr @H5E_CANTSET_g, align 8
  %36 = call i32 (ptr, ptr, i32, i64, i64, ptr, ...) @H5E_printf_stack(ptr noundef nonnull @.str, ptr noundef nonnull @__func__.H5A__create_api_common, i32 noundef 172, i64 noundef %34, i64 noundef %35, ptr noundef nonnull @.str.88) #4
  br label %48

37:                                               ; preds = %30
  %38 = icmp eq i64 %4, 0
  %39 = load i64, ptr @H5P_LST_ATTRIBUTE_CREATE_ID_g, align 8
  %spec.select = select i1 %38, i64 %39, i64 %4
  %40 = load ptr, ptr %12, align 8
  %41 = load i64, ptr %9, align 8
  %42 = call fastcc i64 @H5A__create_common(ptr noundef %40, ptr noundef nonnull %11, ptr noundef nonnull %1, i64 noundef %2, i64 noundef %3, i64 noundef %spec.select, i64 noundef %41, ptr noundef %6)
  %43 = icmp slt i64 %42, 0
  br i1 %43, label %44, label %48

44:                                               ; preds = %37
  %45 = load i64, ptr @H5E_ATTR_g, align 8
  %46 = load i64, ptr @H5E_CANTCREATE_g, align 8
  %47 = call i32 (ptr, ptr, i32, i64, i64, ptr, ...) @H5E_printf_stack(ptr noundef nonnull @.str, ptr noundef nonnull @__func__.H5A__create_api_common, i32 noundef 181, i64 noundef %45, i64 noundef %46, ptr noundef nonnull @.str.89) #4
  br label %48

48:                                               ; preds = %37, %44, %33, %26, %20, %15
  %.0 = phi i64 [ -1, %15 ], [ -1, %33 ], [ -1, %44 ], [ %42, %37 ], [ -1, %26 ], [ -1, %20 ]
  ret i64 %.0
}